(dp1
S'Vacuum:IVC Pressure'
p2
(lp3
I00
aS''
aS''
acsip
_unpickle_type
p4
(S'PyQt4.QtCore'
p5
S'QString'
(V
ttRp6
asS'Compressor:Output Water Temperature'
p7
(lp8
I00
aS''
aS''
ag4
(g5
S'QString'
(V
ttRp9
asS'Dilution Unit Temperatures:Mix Temperature'
p10
(lp11
I00
aS''
aS''
ag4
(g5
S'QString'
(V
ttRp12
asS'Dilution Unit Temperatures:Exchange Temperature'
p13
(lp14
I00
aS''
aS''
ag4
(g5
S'QString'
(V
ttRp15
asS'Mix Pt1000 Temperature:Mix Temperature'
p16
(lp17
I00
aS''
aS''
ag4
(g5
S'QString'
(V
ttRp18
asS'Water Temperature:Exteranal Water Temperature'
p19
(lp20
I00
aS''
aS''
ag4
(g5
S'QString'
(V
ttRp21
asS'Compressor:Helium Temperature'
p22
(lp23
I00
aS''
aS''
ag4
(g5
S'QString'
(V
ttRp24
asS'Water Flow:External Water Flow Rate'
p25
(lp26
I01
aF1.5
aF5
ag4
(g5
S'QString'
(VCHRISTIAN_EMAIL,LAURA_SAFFMAN,ROBERTMCD,BRAD_EMAIL,TRENT_EMAIL
p27
ttRp28
asS'Vacuum:Still Pressure'
p29
(lp30
I00
aS''
aS''
ag4
(g5
S'QString'
(V
ttRp31
asS'Vacuum:OVC Pressure'
p32
(lp33
I00
aS''
aS''
ag4
(g5
S'QString'
(V
ttRp34
asS'Dilution Unit Temperatures:Still Temperature'
p35
(lp36
I00
aS''
aS''
ag4
(g5
S'QString'
(V
ttRp37
asS'50K and 3K Pt1000 Temperatures:3K Stage Temperature'
p38
(lp39
I00
aS''
aS''
ag4
(g5
S'QString'
(V
ttRp40
asS'50K and 3K Pt1000 Temperatures:50K Stage Temperature'
p41
(lp42
I00
aS''
aS''
ag4
(g5
S'QString'
(V
ttRp43
asS'Compressor:Input Water Temperature'
p44
(lp45
I00
aS''
aS''
ag4
(g5
S'QString'
(V
ttRp46
asS'Compressor:Oil Temperature'
p47
(lp48
I00
aS''
aS''
ag4
(g5
S'QString'
(V
ttRp49
as.