(dp1
S'deviceRefreshRates'
p2
(dp3
S'Compressor'
p4
(dp5
S'plot'
p6
I1
sS'readings'
p7
F8
ssS'Dilution Unit Temperatures'
p8
(dp9
g6
I1
sg7
F8
ssS'Mix Pt1000 Temperature'
p10
(dp11
g6
I1
sg7
F8
ssS'50K and 3K Pt1000 Temperatures'
p12
(dp13
g6
I1
sg7
F8
ssS'Water Flow'
p14
(dp15
g6
I1
sg7
F8
ssS'Grapher'
p16
(dp17
g7
I1
ssS'Vacuum'
p18
(dp19
g6
I1
sg7
F8
ssS'Water Temperature'
p20
(dp21
g6
I1
sg7
F8
sssS'DataLoggingInfo'
p22
(dp23
g4
(dp24
S'channels'
p25
(dp26
S'Output Water Temperature'
p27
I01
sS'Oil Temperature'
p28
I01
sS'Helium Temperature'
p29
I01
sS'Input Water Temperature'
p30
I01
ssS'name'
p31
S'Compressor'
p32
sS'location'
p33
S'Z:/mcdermott-group/data/fridgeLogs/dr2/standbyData/05_04_17'
p34
ssNNsg8
(dp35
g25
(dp36
S'Mix Temperature'
p37
I01
sS'Still Temperature'
p38
I01
sS'Exchange Temperature'
p39
I01
ssg31
S'Dilution Unit Temperatures'
p40
sg33
S'Z:/mcdermott-group/data/fridgeLogs/dr2/standbyData/05_04_17'
p41
ssg10
(dp42
g25
(dp43
g37
I01
ssg31
S'Mix Pt1000 Temperature'
p44
sg33
S'Z:/mcdermott-group/data/fridgeLogs/dr2/standbyData/05_04_17'
p45
ssg12
(dp46
g25
(dp47
S'50K Stage Temperature'
p48
I01
sS'3K Stage Temperature'
p49
I01
ssg31
S'50K and 3K Pt1000 Temperatures'
p50
sg33
S'Z:/mcdermott-group/data/fridgeLogs/dr2/standbyData/05_04_17__0'
p51
ssg14
(dp52
g25
(dp53
S'External Water Flow Rate'
p54
I01
ssg31
S'Water Flow'
p55
sg33
S'Z:/mcdermott-group/data/fridgeLogs/dr2/standbyData/05_04_17'
p56
ssg18
(dp57
g25
(dp58
S'IVC Pressure'
p59
I01
sS'OVC Pressure'
p60
I01
sS'Still Pressure'
p61
I01
ssg31
S'Vacuum'
p62
sg33
S'Z:/mcdermott-group/data/fridgeLogs/dr2/standbyData/05_04_17'
p63
ssg20
(dp64
g25
(dp65
S'Exteranal Water Temperature'
p66
I01
ssg31
S'Water Temperature'
p67
sg33
S'Z:/mcdermott-group/data/fridgeLogs/dr2/standbyData/05_04_17'
p68
sssS'guiRefreshRate'
p69
I1
sS'cooldown_mode'
p70
I00
s.