(dp1
S'deviceRefreshRates'
p2
(dp3
S'Mix Pt1000 Temperature'
p4
(dp5
S'readings'
p6
I1
ssS'Dilution Unit Temperatures'
p7
(dp8
g6
I1
ssS'Compressor'
p9
(dp10
g6
I1
ssS'50K and 3K Pt1000 Temperatures'
p11
(dp12
g6
I1
ssS'Water Flow'
p13
(dp14
g6
I1
ssS'Grapher'
p15
(dp16
g6
I1
ssS'Vacuum'
p17
(dp18
g6
I1
ssS'Water Temperature'
p19
(dp20
g6
I1
sssS'DataLoggingInfo'
p21
(dp22
g4
(dp23
S'channels'
p24
(dp25
S'Mix Temperature'
p26
I01
ssS'name'
p27
g4
sS'location'
p28
S'C:/data/fridgeLogs/dr2/cooldown/05_11_18'
p29
ssNNsg7
(dp30
g24
(dp31
S'Still Temperature'
p32
I01
sS'Exchange Temperature'
p33
I01
sg26
I01
ssg27
g7
sg28
S'C:/data/fridgeLogs/dr2/cooldown/05_11_18'
p34
ssg9
(dp35
g24
(dp36
S'Output Water Temperature'
p37
I01
sS'Oil Temperature'
p38
I01
sS'Helium Temperature'
p39
I01
sS'Input Water Temperature'
p40
I01
ssg27
g9
sg28
S'C:/data/fridgeLogs/dr2/standbyData/05_11_18'
p41
ssg11
(dp42
g24
(dp43
S'50K Stage Temperature'
p44
I01
sS'3K Stage Temperature'
p45
I01
ssg27
g11
sg28
S'C:/data/fridgeLogs/dr2/cooldown/05_11_18'
p46
ssg13
(dp47
g24
(dp48
S'External Water Flow Rate'
p49
I01
ssg27
g13
sg28
S'C:/data/fridgeLogs/dr2/standbyData/05_11_18'
p50
ssg17
(dp51
g24
(dp52
S'IVC Pressure'
p53
I01
sS'OVC Pressure'
p54
I01
sS'Still Pressure'
p55
I01
ssg27
g17
sg28
S'C:/data/fridgeLogs/dr2/cooldown/05_11_18'
p56
ssg19
(dp57
g24
(dp58
S'Exteranal Water Temperature'
p59
I01
ssg27
g19
sg28
S'C:/data/fridgeLogs/dr2/standbyData/05_11_18'
p60
sssS'guiRefreshRate'
p61
I1
sS'cooldown_mode'
p62
I01
s.