(dp1
S'deviceRefreshRates'
p2
(dp3
S'Compressor'
p4
(dp5
S'plot'
p6
I1
sS'readings'
p7
F8
ssS'Dilution Unit Temperatures'
p8
(dp9
g6
I1
sg7
F8
ssS'Mix Pt1000 Temperature'
p10
(dp11
g6
I1
sg7
F8
ssS'50K and 3K Pt1000 Temperatures'
p12
(dp13
g6
I1
sg7
F8
ssS'Water Flow'
p14
(dp15
g6
I1
sg7
F8
ssS'Grapher'
p16
(dp17
g7
I1
ssS'Vacuum'
p18
(dp19
g6
I1
sg7
F8
ssS'Water Temperature'
p20
(dp21
g6
I1
sg7
F8
sssS'DataLoggingInfo'
p22
(dp23
g4
(dp24
S'channels'
p25
(dp26
S'Output Water Temperature'
p27
I00
sS'Oil Temperature'
p28
I00
sS'Helium Temperature'
p29
I00
sS'Input Water Temperature'
p30
I00
ssS'name'
p31
g4
sS'location'
p32
S'Z:\\mcdermott-group\\data\\fridgeLogs\\dr2\\04_16_17'
p33
ssg10
(dp34
g25
(dp35
S'Mix Temperature'
p36
I00
ssg31
g10
sg32
S'Z:\\mcdermott-group\\data\\fridgeLogs\\dr2\\04_16_17'
p37
ssg8
(dp38
g25
(dp39
g36
I00
sS'Still Temperature'
p40
I00
sS'Exchange Temperature'
p41
I00
ssg31
g8
sg32
S'Z:\\mcdermott-group\\data\\fridgeLogs\\dr2\\04_16_17'
p42
ssNNsg12
(dp43
g25
Nsg31
Nsg32
Nssg14
(dp44
g25
(dp45
S'External Water Flow Rate'
p46
I00
ssg31
g14
sg32
S'Z:\\mcdermott-group\\data\\fridgeLogs\\dr2\\04_16_17'
p47
ssg18
(dp48
g25
(dp49
S'IVC Pressure'
p50
I00
sS'OVC Pressure'
p51
I00
sS'Still Pressure'
p52
I00
ssg31
g18
sg32
S'Z:\\mcdermott-group\\data\\fridgeLogs\\dr2\\04_16_17'
p53
ssg20
(dp54
g25
(dp55
S'Exteranal Water Temperature'
p56
I00
ssg31
g20
sg32
S'Z:\\mcdermott-group\\data\\fridgeLogs\\dr2\\04_16_17'
p57
sssS'guiRefreshRate'
p58
I1
sS'cooldown_mode'
p59
I01
s.