(dp1
S'deviceRefreshRates'
p2
(dp3
S'Mix Pt1000 Temperature'
p4
(dp5
S'plot'
p6
I1
sS'readings'
p7
F8
ssS'Dilution Unit Temperatures'
p8
(dp9
g6
I1
sg7
F8
ssS'Compressor'
p10
(dp11
g6
I1
sg7
F8
ssS'50K and 3K Pt1000 Temperatures'
p12
(dp13
g6
I1
sg7
F8
ssS'Water Flow'
p14
(dp15
g6
I1
sg7
F8
ssS'Grapher'
p16
(dp17
g7
F8
ssS'Vacuum'
p18
(dp19
g6
I1
sg7
F8
ssS'Water Temperature'
p20
(dp21
g6
I1
sg7
F8
sssS'DataLoggingInfo'
p22
(dp23
g4
(dp24
S'channels'
p25
(dp26
S'Mix Temperature'
p27
I01
ssS'name'
p28
g4
sS'location'
p29
S'Z:\\mcdermott-group\\data\\fridgeLogs\\dr2\\cooldown\\04_07_17'
p30
ssNNsg8
(dp31
g25
(dp32
S'Still Temperature'
p33
I01
sS'Exchange Temperature'
p34
I01
sg27
I01
ssg28
g8
sg29
g30
ssg10
(dp35
g25
(dp36
S'Output Water Temperature'
p37
I01
sS'Oil Temperature'
p38
I01
sS'Helium Temperature'
p39
I01
sS'Input Water Temperature'
p40
I01
ssg28
g10
sg29
g30
ssg12
(dp41
g25
(dp42
S'50K Stage Temperature'
p43
I01
sS'3K Stage Temperature'
p44
I01
ssg28
g12
sg29
g30
ssg14
(dp45
g25
(dp46
S'External Water Flow Rate'
p47
I01
ssg28
g14
sg29
g30
ssg18
(dp48
g25
(dp49
S'IVC Pressure'
p50
I01
sS'OVC Pressure'
p51
I01
sS'Still Pressure'
p52
I01
ssg28
g18
sg29
g30
ssg20
(dp53
g25
(dp54
S'Exteranal Water Temperature'
p55
I01
ssg28
g20
sg29
g30
sssS'guiRefreshRate'
p56
L1L
sS'cooldown_mode'
p57
L1L
s.