(dp1
S'deviceRefreshRates'
p2
(dp3
S'Compressor'
p4
(dp5
S'plot'
p6
I1
sS'readings'
p7
F8
ssS'Dilution Unit Temperatures'
p8
(dp9
g6
I1
sg7
F8
ssS'Mix Pt1000 Temperature'
p10
(dp11
g6
I1
sg7
F8
ssS'50K and 3K Pt1000 Temperatures'
p12
(dp13
g6
I1
sg7
F8
ssS'Water Flow'
p14
(dp15
g6
I1
sg7
F8
ssS'Grapher'
p16
(dp17
g7
F1
ssS'Vacuum'
p18
(dp19
g6
I1
sg7
F8
ssS'Water Temperature'
p20
(dp21
g6
I1
sg7
F8
sssS'DataLoggingInfo'
p22
(dp23
g4
(dp24
S'channels'
p25
(dp26
S'Output Water Temperature'
p27
I01
sS'Oil Temperature'
p28
I01
sS'Helium Temperature'
p29
I01
sS'Input Water Temperature'
p30
I01
ssS'name'
p31
g4
sS'location'
p32
S'Z:\\mcdermott-group\\data\\fridgeLogs\\dr2\\standbyData\\04_06_17'
p33
ssg10
(dp34
g25
(dp35
S'Mix Temperature'
p36
I01
ssg31
g10
sg32
S'Z:\\mcdermott-group\\data\\fridgeLogs\\dr2\\standbyData\\04_06_17'
p37
ssg8
(dp38
g25
(dp39
g36
I01
sS'Still Temperature'
p40
I01
sS'Exchange Temperature'
p41
I01
ssg31
g8
sg32
S'Z:\\mcdermott-group\\data\\fridgeLogs\\dr2\\standbyData\\04_06_17'
p42
ssNNsg12
(dp43
g25
(dp44
S'50K Stage Temperature'
p45
I01
sS'3K Stage Temperature'
p46
I01
ssg31
g12
sg32
S'Z:\\mcdermott-group\\data\\fridgeLogs\\dr2\\standbyData\\04_06_17'
p47
ssg14
(dp48
g25
(dp49
S'External Water Flow Rate'
p50
I01
ssg31
g14
sg32
S'Z:\\mcdermott-group\\data\\fridgeLogs\\dr2\\standbyData\\04_06_17'
p51
ssg18
(dp52
g25
(dp53
S'IVC Pressure'
p54
I01
sS'OVC Pressure'
p55
I01
sS'Still Pressure'
p56
I01
ssg31
g18
sg32
S'Z:\\mcdermott-group\\data\\fridgeLogs\\dr2\\standbyData\\04_06_17'
p57
ssg20
(dp58
g25
(dp59
S'Exteranal Water Temperature'
p60
I01
ssg31
g20
sg32
S'Z:\\mcdermott-group\\data\\fridgeLogs\\dr2\\standbyData\\04_06_17'
p61
sssS'guiRefreshRate'
p62
I1
s.