(dp1
S'deviceRefreshRates'
p2
(dp3
S'Compressor'
p4
(dp5
S'readings'
p6
I1
ssS'Dilution Unit Temperatures'
p7
(dp8
g6
I1
ssS'Mix Pt1000 Temperature'
p9
(dp10
g6
I1
ssS'50K and 3K Pt1000 Temperatures'
p11
(dp12
g6
I1
ssS'Water Flow'
p13
(dp14
g6
I1
ssS'Vacuum'
p15
(dp16
g6
I1
ssS'Water Temperature'
p17
(dp18
g6
I1
sssS'guiRefreshRage'
p19
I1
sS'DataLoggingInfo'
p20
(dp21
g4
(dp22
S'channels'
p23
(dp24
S'Output Water Temperature'
p25
I01
sS'Oil Temperature'
p26
I01
sS'Helium Temperature'
p27
I01
sS'Input Water Temperature'
p28
I01
ssS'name'
p29
g4
sS'location'
p30
S'Z:\\mcdermott-group\\Data\\Leiden\\2017\\2\\0'
p31
ssNNsg7
(dp32
g23
(dp33
S'Mix Temperature'
p34
I01
sS'Still Temperature'
p35
I01
sS'Exchange Temperature'
p36
I01
ssg29
g7
sg30
S'Z:\\mcdermott-group\\Data\\Leiden\\2017\\2\\0'
p37
ssg9
(dp38
g23
(dp39
g34
I01
ssg29
g9
sg30
S'Z:\\mcdermott-group\\Data\\Leiden\\2017\\2\\0'
p40
ssg11
(dp41
g23
(dp42
S'50K Stage Temperature'
p43
I01
sS'3K Stage Temperature'
p44
I01
ssg29
g11
sg30
S'Z:\\mcdermott-group\\Data\\Leiden\\2017\\2\\0'
p45
ssg13
(dp46
g23
(dp47
S'External Water Flow Rate'
p48
I01
ssg29
g13
sg30
S'Z:\\mcdermott-group\\Data\\Leiden\\2017\\2\\0'
p49
ssg15
(dp50
g23
(dp51
S'IVC Pressure'
p52
I01
sS'OVC Pressure'
p53
I01
sS'Still Pressure'
p54
I01
ssg29
g15
sg30
S'Z:\\mcdermott-group\\Data\\Leiden\\2017\\2\\0'
p55
ssg17
(dp56
g23
(dp57
S'Exteranal Water Temperature'
p58
I01
ssg29
g17
sg30
S'Z:\\mcdermott-group\\Data\\Leiden\\2017\\2\\0'
p59
sssS'guiRefreshRate'
p60
I1
s.