(dp1
S'deviceRefreshRates'
p2
(dp3
S'Mix Pt1000 Temperature'
p4
(dp5
S'readings'
p6
I1
ssS'Dilution Unit Temperatures'
p7
(dp8
g6
I1
ssS'Compressor'
p9
(dp10
g6
I1
ssS'50K and 3K Pt1000 Temperatures'
p11
(dp12
g6
I1
ssS'Water Flow'
p13
(dp14
g6
I1
ssS'Grapher'
p15
(dp16
g6
I1
ssS'Vacuum'
p17
(dp18
g6
I1
ssS'Water Temperature'
p19
(dp20
g6
I1
sssS'DataLoggingInfo'
p21
(dp22
g4
(dp23
S'channels'
p24
(dp25
S'Mix Temperature'
p26
I00
ssS'name'
p27
g4
sS'location'
p28
S'Z:\\mcdermott-group\\data\\fridgeLogs\\dr2\\cooldown\\04_07_17'
p29
ssNNsg7
(dp30
g24
(dp31
S'Still Temperature'
p32
I00
sS'Exchange Temperature'
p33
I00
sg26
I00
ssg27
g7
sg28
g29
ssg9
(dp34
g24
(dp35
S'Output Water Temperature'
p36
I00
sS'Oil Temperature'
p37
I00
sS'Helium Temperature'
p38
I00
sS'Input Water Temperature'
p39
I00
ssg27
g9
sg28
g29
ssg11
(dp40
g24
(dp41
S'50K Stage Temperature'
p42
I00
sS'3K Stage Temperature'
p43
I00
ssg27
g11
sg28
g29
ssg13
(dp44
g24
(dp45
S'External Water Flow Rate'
p46
I00
ssg27
g13
sg28
g29
ssg17
(dp47
g24
(dp48
S'IVC Pressure'
p49
I00
sS'OVC Pressure'
p50
I00
sS'Still Pressure'
p51
I00
ssg27
g17
sg28
g29
ssg19
(dp52
g24
(dp53
S'Exteranal Water Temperature'
p54
I00
ssg27
g19
sg28
g29
sssS'guiRefreshRate'
p55
I1
sS'cooldown_mode'
p56
I01
s.