(dp1
S'deviceRefreshRates'
p2
(dp3
S'Mix Pt1000 Temperature'
p4
(dp5
S'plot'
p6
F10
sS'readings'
p7
F10
ssS'Dilution Unit Temperatures'
p8
(dp9
g6
F10
sg7
F3
ssS'Compressor'
p10
(dp11
g6
F10
sg7
F10
ssS'50K and 3K Pt1000 Temperatures'
p12
(dp13
g6
F3
sg7
F3
ssS'Water Flow'
p14
(dp15
g6
F3
sg7
F3
ssS'Vacuum'
p16
(dp17
g6
F3
sg7
F3
ssS'Water Temperature'
p18
(dp19
g6
F3
sg7
F3
sssS'guiRefreshRage'
p20
I1
sS'DataLoggingInfo'
p21
(dp22
g4
(dp23
S'channels'
p24
(dp25
S'Mix Temperature'
p26
I01
ssS'name'
p27
g4
sS'location'
p28
S'Z:\\mcdermott-group\\Data\\Leiden\\2017\\2\\0'
p29
ssNNsg8
(dp30
g24
(dp31
S'Still Temperature'
p32
I01
sS'Exchange Temperature'
p33
I01
sg26
I01
ssg27
g8
sg28
S'Z:\\mcdermott-group\\Data\\Leiden\\2017\\2\\0'
p34
ssg10
(dp35
g24
(dp36
S'Output Water Temperature'
p37
I01
sS'Oil Temperature'
p38
I01
sS'Helium Temperature'
p39
I01
sS'Input Water Temperature'
p40
I01
ssg27
g10
sg28
S'Z:\\mcdermott-group\\Data\\Leiden\\2017\\2\\0'
p41
ssg12
(dp42
g24
(dp43
S'50K Stage Temperature'
p44
I01
sS'3K Stage Temperature'
p45
I01
ssg27
g12
sg28
S'Z:\\mcdermott-group\\Data\\Leiden\\2017\\2\\0'
p46
ssg14
(dp47
g24
(dp48
S'External Water Flow Rate'
p49
I01
ssg27
g14
sg28
S'Z:\\mcdermott-group\\Data\\Leiden\\2017\\2\\0'
p50
ssg16
(dp51
g24
(dp52
S'IVC Pressure'
p53
I01
sS'OVC Pressure'
p54
I01
sS'Still Pressure'
p55
I01
ssg27
g16
sg28
S'Z:\\mcdermott-group\\Data\\Leiden\\2017\\2\\0'
p56
ssg18
(dp57
g24
(dp58
S'Exteranal Water Temperature'
p59
I01
ssg27
g18
sg28
S'Z:\\mcdermott-group\\Data\\Leiden\\2017\\2\\0'
p60
sssS'guiRefreshRate'
p61
F1
s.