(dp1
S'deviceRefreshRates'
p2
(dp3
S'Compressor'
p4
(dp5
S'readings'
p6
L1L
ssS'Dilution Unit Temperatures'
p7
(dp8
g6
L1L
ssS'Mix Pt1000 Temperature'
p9
(dp10
g6
L1L
ssS'50K and 3K Pt1000 Temperatures'
p11
(dp12
g6
L1L
ssS'Water Flow'
p13
(dp14
g6
L1L
ssS'Grapher'
p15
(dp16
g6
L1L
ssS'Vacuum'
p17
(dp18
g6
L1L
ssS'Water Temperature'
p19
(dp20
g6
L1L
sssS'DataLoggingInfo'
p21
(dp22
g4
(dp23
S'channels'
p24
(dp25
S'Output Water Temperature'
p26
L0L
sS'Oil Temperature'
p27
L0L
sS'Helium Temperature'
p28
L0L
sS'Input Water Temperature'
p29
L0L
ssS'name'
p30
g4
sS'location'
p31
S'Z:\\mcdermott-group\\data\\fridgeLogs\\dr2\\cooldown\\04_07_17'
p32
ssNNsg7
(dp33
g24
(dp34
S'Mix Temperature'
p35
L0L
sS'Still Temperature'
p36
L0L
sS'Exchange Temperature'
p37
L0L
ssg30
g7
sg31
g32
ssg9
(dp38
g24
(dp39
g35
L0L
ssg30
g9
sg31
g32
ssg11
(dp40
g24
(dp41
S'50K Stage Temperature'
p42
L0L
sS'3K Stage Temperature'
p43
L0L
ssg30
g11
sg31
g32
ssg13
(dp44
g24
(dp45
S'External Water Flow Rate'
p46
L0L
ssg30
g13
sg31
g32
ssg17
(dp47
g24
(dp48
S'IVC Pressure'
p49
L0L
sS'OVC Pressure'
p50
L0L
sS'Still Pressure'
p51
L0L
ssg30
g17
sg31
g32
ssg19
(dp52
g24
(dp53
S'Exteranal Water Temperature'
p54
L0L
ssg30
g19
sg31
g32
sssS'guiRefreshRate'
p55
L1L
sS'cooldown_mode'
p56
L1L
s.