(dp1
S'deviceRefreshRates'
p2
(dp3
S'Compressor'
p4
(dp5
S'plot'
p6
L1L
sS'readings'
p7
L1L
ssS'Virtual Device'
p8
(dp9
S'plot'
p10
I1
ssS'Dilution Unit Temperatures'
p11
(dp12
g6
L1L
sg7
L1L
ssS'Mix Pt1000 Temperature'
p13
(dp14
g6
L1L
sg7
L1L
ssS'50K and 3K Pt1000 Temperatures'
p15
(dp16
g6
L1L
sg7
L1L
ssS'Water Flow'
p17
(dp18
g6
L1L
sg7
L1L
ssS'Vacuum'
p19
(dp20
g6
L1L
sg7
L1L
ssS'Water Temperature'
p21
(dp22
g6
L1L
sg7
L1L
sssS'guiRefreshRage'
p23
L1L
sS'DataLoggingInfo'
p24
(dp25
g4
(dp26
S'channels'
p27
(dp28
S'Output Water Temperature'
p29
L1L
sS'Oil Temperature'
p30
L1L
sS'Helium Temperature'
p31
L1L
sS'Input Water Temperature'
p32
L1L
ssS'name'
p33
g4
sS'location'
p34
S'Z:\\mcdermott-group\\Data\\Leiden\\2017\\1\\2'
p35
ssNNsg11
(dp36
g27
(dp37
S'Mix Temperature'
p38
L1L
sS'Still Temperature'
p39
L1L
sS'Exchange Temperature'
p40
L1L
ssg33
g11
sg34
S'Z:\\mcdermott-group\\Data\\Leiden\\2017\\1\\2'
p41
ssg13
(dp42
g27
(dp43
g38
L1L
ssg33
g13
sg34
S'Z:\\mcdermott-group\\Data\\Leiden\\2017\\1\\2'
p44
ssg15
(dp45
g27
(dp46
S'50K Stage Temperature'
p47
L1L
sS'3K Stage Temperature'
p48
L1L
ssg33
g15
sg34
S'Z:\\mcdermott-group\\Data\\Leiden\\2017\\1\\2'
p49
ssg17
(dp50
g27
(dp51
S'External Water Flow Rate'
p52
L1L
ssg33
g17
sg34
S'Z:\\mcdermott-group\\Data\\Leiden\\2017\\1\\2'
p53
ssg19
(dp54
g27
(dp55
S'IVC Pressure'
p56
L1L
sS'OVC Pressure'
p57
L1L
sS'Still Pressure'
p58
L1L
ssg33
g19
sg34
S'Z:\\mcdermott-group\\Data\\Leiden\\2017\\1\\2'
p59
ssg21
(dp60
g27
(dp61
S'Exteranal Water Temperature'
p62
L1L
ssg33
g21
sg34
S'Z:\\mcdermott-group\\Data\\Leiden\\2017\\1\\2'
p63
sssS'guiRefreshRate'
p64
L1L
s.