(dp1
S'deviceRefreshRates'
p2
(dp3
S'Mix Pt1000 Temperature'
p4
(dp5
S'plot'
p6
I1
sS'readings'
p7
I1
ssS'Dilution Unit Temperatures'
p8
(dp9
g6
I1
sg7
<<<<<<< HEAD
F10
ssS'Mix Pt1000 Temperature'
=======
I1
ssS'Compressor'
>>>>>>> origin/MView_Final_Touches
p10
(dp11
g6
I1
sS'readings'
p12
I1
ssS'50K and 3K Pt1000 Temperatures'
p13
(dp14
g6
I1
sg7
I1
ssS'Water Flow'
p15
(dp16
g6
I1
sg12
I1
ssS'Grapher'
p17
(dp18
S'readings'
p19
I1
ssS'Vacuum'
p20
(dp21
g6
I1
sg12
I1
ssS'Water Temperature'
p22
(dp23
g6
I1
sg12
I1
sssS'DataLoggingInfo'
p24
(dp25
g4
(dp26
S'channels'
p27
(dp28
S'Mix Temperature'
p29
I01
ssS'name'
p30
S'Mix Pt1000 Temperature'
p31
sS'location'
p32
<<<<<<< HEAD
S'Z:\\mcdermott-group\\Data\\Leiden\\2017\\03-23-2017'
=======
S'Z:\\mcdermott-group\\Data\\Leiden\\2017\\03-29-2017'
>>>>>>> origin/MView_Final_Touches
p33
ssNNsg8
(dp34
g27
(dp35
g29
I01
sS'Still Temperature'
p36
I01
sS'Exchange Temperature'
p37
I01
ssg30
S'Dilution Unit Temperatures'
p38
sg32
g33
ssg10
<<<<<<< HEAD
(dp40
g24
(dp41
g36
I01
ssg30
S'Mix Pt1000 Temperature'
p42
sg32
g33
ssg12
(dp43
g24
(dp44
S'50K Stage Temperature'
p45
I01
sS'3K Stage Temperature'
p46
I01
ssg30
S'50K and 3K Pt1000 Temperatures'
p47
sg32
g33
ssg14
(dp48
g24
(dp49
S'External Water Flow Rate'
p50
=======
(dp39
S'channels'
p40
(dp41
S'Output Water Temperature'
p42
I01
sS'Oil Temperature'
p43
I01
sS'Helium Temperature'
p44
I01
sS'Input Water Temperature'
p45
I01
ssS'name'
p46
S'Compressor'
p47
sS'location'
p48
g33
ssg13
(dp49
g27
(dp50
S'50K Stage Temperature'
p51
I01
sS'3K Stage Temperature'
p52
I01
ssg30
S'50K and 3K Pt1000 Temperatures'
p53
sg32
g33
ssg15
(dp54
g40
(dp55
S'External Water Flow Rate'
p56
>>>>>>> origin/MView_Final_Touches
I01
ssg46
S'Water Flow'
<<<<<<< HEAD
p51
sg32
g33
ssg16
(dp52
g24
(dp53
S'IVC Pressure'
p54
I01
sS'OVC Pressure'
p55
I01
sS'Still Pressure'
p56
=======
p57
sg48
g33
ssg20
(dp58
g40
(dp59
S'IVC Pressure'
p60
I01
sS'OVC Pressure'
p61
I01
sS'Still Pressure'
p62
>>>>>>> origin/MView_Final_Touches
I01
ssg46
S'Vacuum'
<<<<<<< HEAD
p57
sg32
g33
ssg18
(dp58
g24
(dp59
S'Exteranal Water Temperature'
p60
=======
p63
sg48
g33
ssg22
(dp64
g40
(dp65
S'Exteranal Water Temperature'
p66
>>>>>>> origin/MView_Final_Touches
I01
ssg46
S'Water Temperature'
<<<<<<< HEAD
p61
sg32
g33
sssS'guiRefreshRate'
p62
F1
=======
p67
sg48
g33
sssS'guiRefreshRate'
p68
I1
>>>>>>> origin/MView_Final_Touches
s.