(dp1
S'deviceRefreshRates'
p2
(dp3
S'Mix Pt1000 Temperature'
p4
(dp5
S'plot'
p6
<<<<<<< HEAD
L1L
sS'readings'
p7
L1L
ssS'Virtual Device'
p8
(dp9
S'plot'
p10
I1
ssS'Dilution Unit Temperatures'
p11
(dp12
g6
L1L
sg7
L1L
ssS'Mix Pt1000 Temperature'
p13
(dp14
g6
L1L
sg7
L1L
=======
F10
sS'readings'
p7
F10
ssS'Dilution Unit Temperatures'
p8
(dp9
g6
F10
sg7
F10
ssS'Compressor'
p10
(dp11
g6
F3
sg7
F3
>>>>>>> 6034a2be3303e32b3a0a00746b9cc5100a5e4d2c
ssS'50K and 3K Pt1000 Temperatures'
p15
(dp16
g6
<<<<<<< HEAD
L1L
sg7
L1L
=======
F10
sg7
F10
>>>>>>> 6034a2be3303e32b3a0a00746b9cc5100a5e4d2c
ssS'Water Flow'
p17
(dp18
g6
<<<<<<< HEAD
L1L
sg7
L1L
=======
F3
sg7
F3
>>>>>>> 6034a2be3303e32b3a0a00746b9cc5100a5e4d2c
ssS'Vacuum'
p19
(dp20
g6
<<<<<<< HEAD
L1L
sg7
L1L
=======
F3
sg7
F3
>>>>>>> 6034a2be3303e32b3a0a00746b9cc5100a5e4d2c
ssS'Water Temperature'
p21
(dp22
g6
<<<<<<< HEAD
L1L
sg7
L1L
sssS'guiRefreshRage'
p23
=======
F3
sg7
F3
sssS'guiRefreshRage'
p20
>>>>>>> 6034a2be3303e32b3a0a00746b9cc5100a5e4d2c
L1L
sS'DataLoggingInfo'
p24
(dp25
<<<<<<< HEAD
g4
(dp26
S'channels'
p27
(dp28
S'Output Water Temperature'
p29
L1L
sS'Oil Temperature'
p30
L1L
sS'Helium Temperature'
p31
L1L
sS'Input Water Temperature'
p32
L1L
ssS'name'
p33
g4
sS'location'
p34
S'Z:\\mcdermott-group\\Data\\Leiden\\2017\\1\\2'
p35
ssNNsg11
=======
S'Mix Temperature'
p26
I01
ssS'name'
p27
S'Mix Pt1000 Temperature'
p28
sS'location'
p29
S'Z:\\mcdermott-group\\Data\\Leiden\\2017\\01-20-2017'
p30
ssNNsg8
(dp31
g24
(dp32
S'Still Temperature'
p33
I01
sS'Exchange Temperature'
p34
I01
sg26
I01
ssg27
S'Dilution Unit Temperatures'
p35
sg29
g30
ssg10
>>>>>>> 6034a2be3303e32b3a0a00746b9cc5100a5e4d2c
(dp36
g27
(dp37
<<<<<<< HEAD
S'Mix Temperature'
p38
L1L
sS'Still Temperature'
p39
L1L
sS'Exchange Temperature'
p40
L1L
ssg33
g11
sg34
S'Z:\\mcdermott-group\\Data\\Leiden\\2017\\1\\2'
p41
ssg13
(dp42
g27
(dp43
g38
L1L
ssg33
g13
sg34
S'Z:\\mcdermott-group\\Data\\Leiden\\2017\\1\\2'
p44
ssg15
(dp45
g27
(dp46
S'50K Stage Temperature'
p47
L1L
sS'3K Stage Temperature'
p48
L1L
ssg33
g15
sg34
S'Z:\\mcdermott-group\\Data\\Leiden\\2017\\1\\2'
p49
ssg17
(dp50
g27
(dp51
S'External Water Flow Rate'
p52
L1L
ssg33
g17
sg34
S'Z:\\mcdermott-group\\Data\\Leiden\\2017\\1\\2'
p53
ssg19
(dp54
g27
(dp55
S'IVC Pressure'
p56
L1L
sS'OVC Pressure'
p57
L1L
sS'Still Pressure'
p58
L1L
ssg33
g19
sg34
S'Z:\\mcdermott-group\\Data\\Leiden\\2017\\1\\2'
p59
ssg21
(dp60
g27
(dp61
S'Exteranal Water Temperature'
p62
L1L
ssg33
g21
sg34
S'Z:\\mcdermott-group\\Data\\Leiden\\2017\\1\\2'
p63
sssS'guiRefreshRate'
p64
=======
S'Output Water Temperature'
p38
I01
sS'Oil Temperature'
p39
I01
sS'Helium Temperature'
p40
I01
sS'Input Water Temperature'
p41
I01
ssg27
S'Compressor'
p42
sg29
g30
ssg12
(dp43
g24
(dp44
S'50K Stage Temperature'
p45
I01
sS'3K Stage Temperature'
p46
I01
ssg27
S'50K and 3K Pt1000 Temperatures'
p47
sg29
g30
ssg14
(dp48
g24
(dp49
S'External Water Flow Rate'
p50
I01
ssg27
S'Water Flow'
p51
sg29
g30
ssg16
(dp52
g24
(dp53
S'IVC Pressure'
p54
I01
sS'OVC Pressure'
p55
I01
sS'Still Pressure'
p56
I01
ssg27
S'Vacuum'
p57
sg29
g30
ssg18
(dp58
g24
(dp59
S'Exteranal Water Temperature'
p60
I01
ssg27
S'Water Temperature'
p61
sg29
g30
sssS'guiRefreshRate'
p62
>>>>>>> 6034a2be3303e32b3a0a00746b9cc5100a5e4d2c
L1L
s.