(dp1
S'deviceRefreshRates'
p2
(dp3
S'Compressor'
p4
(dp5
S'plot'
p6
I1
sS'readings'
p7
I1
ssS'Dilution Unit Temperatures'
p8
(dp9
g6
I1
sg7
I1
ssS'Mix Pt1000 Temperature'
p10
(dp11
g6
I1
sg7
I1
ssS'50K and 3K Pt1000 Temperatures'
p12
(dp13
g6
I1
sg7
I1
ssS'Water Flow'
p14
(dp15
g6
I1
sg7
I1
ssS'Vacuum'
p16
(dp17
g6
I1
sg7
I1
ssS'Water Temperature'
p18
(dp19
g6
I1
sg7
I1
sssS'guiRefreshRage'
p20
I1
sS'DataLoggingInfo'
p21
(dp22
g4
(dp23
S'channels'
p24
(dp25
S'Output Water Temperature'
p26
I01
sS'Oil Temperature'
p27
I01
sS'Helium Temperature'
p28
I01
sS'Input Water Temperature'
p29
I01
ssS'name'
p30
g4
sS'location'
p31
S'Z:\\mcdermott-group\\Data\\Leiden\\2017\\1\\2'
p32
ssg10
(dp33
g24
(dp34
S'Mix Temperature'
p35
I01
ssg30
g10
sg31
Nssg8
(dp36
g24
(dp37
g35
I01
sS'Still Temperature'
p38
I01
sS'Exchange Temperature'
p39
I01
ssg30
g8
sg31
S'Z:\\mcdermott-group\\Data\\Leiden\\2017\\1\\2'
p40
ssNNsg12
(dp41
g24
(dp42
S'50K Stage Temperature'
p43
I01
sS'3K Stage Temperature'
p44
I01
ssg30
g12
sg31
S'Z:\\mcdermott-group\\Data\\Leiden\\2017\\1\\2'
p45
ssg14
(dp46
g24
(dp47
S'External Water Flow Rate'
p48
I01
ssg30
g14
sg31
S'Z:\\mcdermott-group\\Data\\Leiden\\2017\\1\\2'
p49
ssg16
(dp50
g24
(dp51
S'IVC Pressure'
p52
I01
sS'OVC Pressure'
p53
I01
sS'Still Pressure'
p54
I01
ssg30
g16
sg31
S'Z:\\mcdermott-group\\Data\\Leiden\\2017\\1\\2'
p55
ssg18
(dp56
g24
(dp57
S'Exteranal Water Temperature'
p58
I01
ssg30
g18
sg31
S'Z:\\mcdermott-group\\Data\\Leiden\\2017\\1\\2'
p59
sssS'guiRefreshRate'
p60
I1
s.