(dp1
S'deviceRefreshRates'
p2
(dp3
S'Compressor'
p4
(dp5
S'plot'
p6
I1
sS'readings'
p7
I1
ssS'Dilution Unit Temperatures'
p8
(dp9
g6
I1
sS'readings'
p10
I1
ssS'Mix Pt1000 Temperature'
p11
(dp12
g6
I1
sg10
I1
ssS'50K and 3K Pt1000 Temperatures'
p13
(dp14
g6
I1
sg10
I1
ssS'Water Flow'
p15
(dp16
g6
I1
sg7
I1
ssS'Grapher'
p17
(dp18
S'readings'
p19
I1
ssS'Vacuum'
p20
(dp21
g6
I1
sg7
I1
ssS'Water Temperature'
p22
(dp23
g6
I1
sg7
I1
sssS'DataLoggingInfo'
p24
(dp25
g4
(dp26
S'channels'
p27
(dp28
S'Output Water Temperature'
p29
I01
sS'Oil Temperature'
p30
I01
sS'Helium Temperature'
p31
I01
sS'Input Water Temperature'
p32
I01
ssS'name'
p33
S'Compressor'
p34
sS'location'
p35
S'Z:\\mcdermott-group\\Data\\Leiden\\2017\\3\\3'
p36
ssNNsg8
(dp37
S'channels'
p38
(dp39
S'Still Temperature'
p40
I01
sS'Exchange Temperature'
p41
I01
sS'Mix Temperature'
p42
I01
ssS'name'
p43
S'Dilution Unit Temperatures'
p44
sS'location'
p45
S'Z:\\mcdermott-group\\Data\\Leiden\\2017\\3\\3'
p46
ssg11
(dp47
g38
(dp48
g42
I01
ssg43
S'Mix Pt1000 Temperature'
p49
sg45
S'Z:\\mcdermott-group\\Data\\Leiden\\2017\\3\\3'
p50
ssg13
(dp51
g38
(dp52
S'50K Stage Temperature'
p53
I01
sS'3K Stage Temperature'
p54
I01
ssg43
S'50K and 3K Pt1000 Temperatures'
p55
sg45
S'Z:\\mcdermott-group\\Data\\Leiden\\2017\\3\\3'
p56
ssg15
(dp57
g27
(dp58
S'External Water Flow Rate'
p59
I01
ssg33
S'Water Flow'
p60
sg35
S'Z:\\mcdermott-group\\Data\\Leiden\\2017\\3\\3'
p61
ssg20
(dp62
g27
(dp63
S'IVC Pressure'
p64
I01
sS'OVC Pressure'
p65
I01
sS'Still Pressure'
p66
I01
ssg33
S'Vacuum'
p67
sg35
S'Z:\\mcdermott-group\\Data\\Leiden\\2017\\3\\3'
p68
ssg22
(dp69
g27
(dp70
S'Exteranal Water Temperature'
p71
I01
ssg33
S'Water Temperature'
p72
sg35
S'Z:\\mcdermott-group\\Data\\Leiden\\2017\\3\\3'
p73
sssS'guiRefreshRate'
p74
I1
s.