(dp1
S'deviceRefreshRates'
p2
(dp3
S'Mix Pt1000 Temperature'
p4
(dp5
S'plot'
p6
F10
sS'readings'
p7
F10
ssS'Dilution Unit Temperatures'
p8
(dp9
g6
F10
sg7
F10
ssS'Compressor'
p10
(dp11
g6
F3
sg7
F3
ssS'50K and 3K Pt1000 Temperatures'
p12
(dp13
g6
F10
sg7
F10
ssS'Water Flow'
p14
(dp15
g6
F3
sg7
F3
ssS'Vacuum'
p16
(dp17
g6
F3
sg7
F3
ssS'Water Temperature'
p18
(dp19
g6
F3
sg7
F3
sssS'guiRefreshRage'
p20
L1L
sS'DataLoggingInfo'
p21
(dp22
g4
(dp23
S'channels'
p24
(dp25
S'Mix Temperature'
p26
I01
ssS'name'
p27
S'Mix Pt1000 Temperature'
p28
sS'location'
p29
S'Z:\\mcdermott-group\\Data\\Leiden\\2017\\01-20-2017'
p30
ssNNsg8
(dp31
g24
(dp32
S'Still Temperature'
p33
I01
sS'Exchange Temperature'
p34
I01
sg26
I01
ssg27
S'Dilution Unit Temperatures'
p35
sg29
g30
ssg10
(dp36
g24
(dp37
S'Output Water Temperature'
p38
I01
sS'Oil Temperature'
p39
I01
sS'Helium Temperature'
p40
I01
sS'Input Water Temperature'
p41
I01
ssg27
S'Compressor'
p42
sg29
g30
ssg12
(dp43
g24
(dp44
S'50K Stage Temperature'
p45
I01
sS'3K Stage Temperature'
p46
I01
ssg27
S'50K and 3K Pt1000 Temperatures'
p47
sg29
g30
ssg14
(dp48
g24
(dp49
S'External Water Flow Rate'
p50
I01
ssg27
S'Water Flow'
p51
sg29
g30
ssg16
(dp52
g24
(dp53
S'IVC Pressure'
p54
I01
sS'OVC Pressure'
p55
I01
sS'Still Pressure'
p56
I01
ssg27
S'Vacuum'
p57
sg29
g30
ssg18
(dp58
g24
(dp59
S'Exteranal Water Temperature'
p60
I01
ssg27
S'Water Temperature'
p61
sg29
g30
sssS'guiRefreshRate'
p62
L1L
s.