(dp1
S'deviceRefreshRates'
p2
(dp3
S'Mix Pt1000 Temperature'
p4
(dp5
S'plot'
p6
I1
sS'readings'
p7
F8
ssS'Dilution Unit Temperatures'
p8
(dp9
g6
I1
sg7
F8
ssS'Compressor'
p10
(dp11
g6
I1
sg7
F8
ssS'50K and 3K Pt1000 Temperatures'
p12
(dp13
g6
I1
sg7
F8
ssS'Water Flow'
p14
(dp15
g6
I1
sg7
F8
ssS'Grapher'
p16
(dp17
g7
I1
ssS'Vacuum'
p18
(dp19
g6
I1
sg7
F8
ssS'Water Temperature'
p20
(dp21
g6
I1
sg7
F8
sssS'DataLoggingInfo'
p22
(dp23
g4
(dp24
S'channels'
p25
(dp26
S'Mix Temperature'
p27
I01
ssS'name'
p28
S'Mix Pt1000 Temperature'
p29
sS'location'
p30
S'Z:\\mcdermott-group\\data\\fridgeLogs\\dr2\\cooldown\\04_16_17'
p31
ssNNsg8
(dp32
g25
(dp33
S'Still Temperature'
p34
I01
sS'Exchange Temperature'
p35
I01
sg27
I01
ssg28
S'Dilution Unit Temperatures'
p36
sg30
g31
ssg10
(dp37
g25
(dp38
S'Output Water Temperature'
p39
I01
sS'Oil Temperature'
p40
I01
sS'Helium Temperature'
p41
I01
sS'Input Water Temperature'
p42
I01
ssg28
S'Compressor'
p43
sg30
g31
ssg12
(dp44
g25
(dp45
S'50K Stage Temperature'
p46
I01
sS'3K Stage Temperature'
p47
I01
ssg28
S'50K and 3K Pt1000 Temperatures'
p48
sg30
g31
ssg14
(dp49
g25
(dp50
S'External Water Flow Rate'
p51
I01
ssg28
S'Water Flow'
p52
sg30
g31
ssg18
(dp53
g25
(dp54
S'IVC Pressure'
p55
I01
sS'OVC Pressure'
p56
I01
sS'Still Pressure'
p57
I01
ssg28
S'Vacuum'
p58
sg30
g31
ssg20
(dp59
g25
(dp60
S'Exteranal Water Temperature'
p61
I01
ssg28
S'Water Temperature'
p62
sg30
g31
sssS'guiRefreshRate'
p63
I1
sS'cooldown_mode'
p64
I01
s.