(dp1
S'deviceRefreshRates'
p2
(dp3
S'Compressor'
p4
(dp5
S'plot'
p6
F10
sS'readings'
p7
F10
ssS'Dilution Unit Temperatures'
p8
(dp9
g6
F10
sg7
F10
ssS'Mix Pt1000 Temperature'
p10
(dp11
g6
F10
sg7
F10
ssS'50K and 3K Pt1000 Temperatures'
p12
(dp13
g6
F3
sg7
F3
ssS'Water Flow'
p14
(dp15
g6
F3
sg7
F3
ssS'Vacuum'
p16
(dp17
g6
F3
sg7
F3
ssS'Water Temperature'
p18
(dp19
g6
F3
sg7
F3
sssS'guiRefreshRage'
p20
I1
sS'DataLoggingInfo'
p21
(dp22
g4
(dp23
S'channels'
p24
(dp25
S'Output Water Temperature'
p26
I01
sS'Oil Temperature'
p27
I01
sS'Helium Temperature'
p28
I01
sS'Input Water Temperature'
p29
I01
ssS'name'
p30
S'Compressor'
p31
sS'location'
p32
S'Z:\\mcdermott-group\\Data\\Leiden\\2017\\03-23-2017'
p33
ssNNsg8
(dp34
g24
(dp35
S'Mix Temperature'
p36
I01
sS'Still Temperature'
p37
I01
sS'Exchange Temperature'
p38
I01
ssg30
S'Dilution Unit Temperatures'
p39
sg32
g33
ssg10
(dp40
g24
(dp41
g36
I01
ssg30
S'Mix Pt1000 Temperature'
p42
sg32
g33
ssg12
(dp43
g24
(dp44
S'50K Stage Temperature'
p45
I01
sS'3K Stage Temperature'
p46
I01
ssg30
S'50K and 3K Pt1000 Temperatures'
p47
sg32
g33
ssg14
(dp48
g24
(dp49
S'External Water Flow Rate'
p50
I01
ssg30
S'Water Flow'
p51
sg32
g33
ssg16
(dp52
g24
(dp53
S'IVC Pressure'
p54
I01
sS'OVC Pressure'
p55
I01
sS'Still Pressure'
p56
I01
ssg30
S'Vacuum'
p57
sg32
g33
ssg18
(dp58
g24
(dp59
S'Exteranal Water Temperature'
p60
I01
ssg30
S'Water Temperature'
p61
sg32
g33
sssS'guiRefreshRate'
p62
F1
s.