(dp1
S'deviceRefreshRates'
p2
(dp3
S'Mix Pt1000 Temperature'
p4
(dp5
S'plot'
p6
F3
sS'readings'
p7
F3
ssS'Dilution Unit Temperatures'
p8
(dp9
g6
F10
sg7
F10
ssS'Compressor'
p10
(dp11
g6
I1
sg7
F1
ssS'50K and 3K Pt1000 Temperatures'
p12
(dp13
g6
F3
sg7
F3
ssS'Water Flow'
p14
(dp15
g6
I1
sg7
F1
ssS'Vacuum'
p16
(dp17
g6
F3
sg7
F3
ssS'Water Temperature'
p18
(dp19
g6
I1
sg7
F1
sssS'guiRefreshRage'
p20
I1
sS'DataLoggingInfo'
p21
(dp22
g4
(dp23
S'channels'
p24
(dp25
S'Mix Temperature'
p26
I01
ssS'name'
p27
S'Mix Pt1000 Temperature'
p28
sS'location'
p29
S'Z:\\mcdermott-group\\Data\\Leiden\\2017\\1\\1'
p30
ssNNsg8
(dp31
g24
(dp32
S'Still Temperature'
p33
I01
sS'Exchange Temperature'
p34
I01
sg26
I01
ssg27
S'Dilution Unit Temperatures'
p35
sg29
S'Z:\\mcdermott-group\\Data\\Leiden\\2017\\1\\1'
p36
ssg10
(dp37
g24
(dp38
S'Output Water Temperature'
p39
I01
sS'Oil Temperature'
p40
I01
sS'Helium Temperature'
p41
I01
sS'Input Water Temperature'
p42
I01
ssg27
S'Compressor'
p43
sg29
S'Z:\\mcdermott-group\\Data\\Leiden\\2017\\1\\1'
p44
ssg12
(dp45
g24
(dp46
S'50K Stage Temperature'
p47
I01
sS'3K Stage Temperature'
p48
I01
ssg27
S'50K and 3K Pt1000 Temperatures'
p49
sg29
S'Z:\\mcdermott-group\\Data\\Leiden\\2017\\1\\1'
p50
ssg14
(dp51
g24
(dp52
S'External Water Flow Rate'
p53
I01
ssg27
S'Water Flow'
p54
sg29
S'Z:\\mcdermott-group\\Data\\Leiden\\2017\\1\\1'
p55
ssg16
(dp56
g24
(dp57
S'IVC Pressure'
p58
I01
sS'OVC Pressure'
p59
I01
sS'Still Pressure'
p60
I01
ssg27
S'Vacuum'
p61
sg29
S'Z:\\mcdermott-group\\Data\\Leiden\\2017\\1\\1'
p62
ssg18
(dp63
g24
(dp64
S'Exteranal Water Temperature'
p65
I01
ssg27
S'Water Temperature'
p66
sg29
S'Z:\\mcdermott-group\\Data\\Leiden\\2017\\1\\1'
p67
sssS'guiRefreshRate'
p68
F1
s.