(dp1
S'deviceRefreshRates'
p2
(dp3
S'Light Meter 3000'
p4
(dp5
S'readings'
p6
I1
sssS'DataLoggingInfo'
p7
(dp8
NNsg4
(dp9
S'channels'
p10
(dp11
S'Average Light Level'
p12
I01
sS'Light Level'
p13
I00
ssS'name'
p14
g4
sS'location'
p15
S'C:\\Users\\Noah\\Documents\\College\\McDermott\\DatachestRoot\\04_11_17'
p16
sssS'guiRefreshRate'
p17
I1
s.