(dp1
S'guiRefreshRate'
p2
I1
sS'guiRefreshRage'
p3
I1
sS'DataLoggingInfo'
p4
(dp5
NNsS'Light Meter 3000'
p6
(dp7
S'channels'
p8
(dp9
S'Light Level'
p10
I01
ssS'name'
p11
g6
sS'location'
p12
S'C:\\Users\\Noah\\Documents\\College\\McDermott\\DatachestRoot\\2017\\2\\3'
p13
sssS'deviceRefreshRates'
p14
(dp15
S'Light Meter 3000'
p16
(dp17
S'plot'
p18
F0.050000000000000003
sS'readings'
p19
F0.050000000000000003
sss.