(dp1
S'Light Meter 3000:Filtered Light Level'
p2
(lp3
I00
aS''
aS''
acsip
_unpickle_type
p4
(S'PyQt4.QtCore'
p5
S'QString'
(V
ttRp6
asS'Light Meter 3000:Light Level'
p7
(lp8
I00
aS''
aS''
ag4
(g5
S'QString'
(V
ttRp9
as.