(lp1
(lp2
S'70.0'
p3
aS''
aS''
aS''
aS''
aS''
aS''
aS''
aS''
aS''
aS''
aS''
aS''
aS''
aS''
aa(lp4
S''
aS''
aS''
aS''
aS''
aS''
aS''
aS''
aS''
aS''
aS''
aS''
aS''
aS''
aS''
aa(lp5
S''
aS''
aS''
aS''
aS''
aS''
aS''
aS''
aS''
aS''
aS''
aS''
aS''
aS''
aS''
aa(lp6
I00
aI00
aI00
aI00
aI00
aI00
aI00
aI00
aI00
aI00
aI00
aI00
aI00
aI00
aI00
aa.