(lp1
(lp2
S'150.0'
p3
aS''
aS''
aS''
aS''
aS''
aS''
aS''
aS''
aS''
aS''
aS''
aS''
aS''
aS''
aa(lp4
S''
aS''
aS''
aS''
aS''
aS''
aS''
aS''
aS''
aS''
aS''
aS''
aS''
aS''
aS''
aa(lp5
S'NOAHEMAIL'
p6
aS''
aS''
aS''
aS''
aS''
aS''
aS''
aS''
aS''
aS''
aS''
aS''
aS''
aS''
aa(lp7
I01
aI00
aI00
aI00
aI00
aI00
aI00
aI00
aI00
aI00
aI00
aI00
aI00
aI00
aI00
aa.