(dp1
S'deviceRefreshRates'
p2
(dp3
S'Local Temperatures'
p4
(dp5
S'plot'
p6
F1
sS'readings'
p7
F1
ssS'Random'
p8
(dp9
S'plot'
p10
F1
sS'readings'
p11
F1
ssS'Virtual Device'
p12
(dp13
S'plot'
p14
I1
sssS'guiRefreshRage'
p15
I1
sS'DataLoggingInfo'
p16
(dp17
g4
(dp18
S'channels'
p19
(dp20
S'Outside Temperature'
p21
I01
ssS'name'
p22
g4
sS'location'
p23
S'C:\\Users\\Noah\\Documents\\College\\McDermott\\DatachestRoot\\2017\\1\\1'
p24
ssNNsg8
(dp25
S'channels'
p26
(dp27
S'Random Pressure'
p28
I01
sS'Random Temperature'
p29
I01
ssS'name'
p30
g8
sS'location'
p31
S'C:\\Users\\Noah\\Documents\\College\\McDermott\\DatachestRoot\\2017\\1\\1'
p32
sssS'guiRefreshRate'
p33
F0.5
s.