(dp1
S'deviceRefreshRates'
p2
(dp3
S'Local Temperatures'
p4
(dp5
S'plot'
p6
I1
sS'readings'
p7
I1
ssS'Random'
p8
(dp9
g6
I1
sg7
I1
ssS'Grapher'
p10
(dp11
g7
I1
sssS'DataLoggingInfo'
p12
(dp13
g4
(dp14
S'channels'
p15
NsS'name'
p16
NsS'location'
p17
NssNNsg8
(dp18
g15
Nsg16
Nsg17
NsssS'guiRefreshRate'
p19
F0.5
s.