(dp1
S'deviceRefreshRates'
p2
(dp3
S'Random'
p4
(dp5
S'plot'
p6
F0.5
sS'readings'
p7
F0.5
sssS'guiRefreshRage'
p8
I1
sS'DataLoggingInfo'
p9
(dp10
NNsg4
(dp11
S'channels'
p12
(dp13
S'Random Pressure'
p14
I01
sS'Random Temperature'
p15
I01
ssS'name'
p16
S'Random'
p17
sS'location'
p18
S'C:\\Users\\Noah\\Documents\\College\\McDermott\\DatachestRoot\\2017'
p19
sssS'guiRefreshRate'
p20
F0.5
s.