(dp1
S'deviceRefreshRates'
p2
(dp3
S'Local Temperatures'
p4
(dp5
S'plot'
p6
I1
sS'readings'
p7
F0.29999999999999999
ssS'Test Node'
p8
(dp9
S'plot'
p10
I1
sg7
F0.20000000000000001
ssS'Random'
p11
(dp12
g6
I1
sg7
I1
ssS'Grapher'
p13
(dp14
g7
F1
sssS'guiRefreshRage'
p15
I1
sS'DataLoggingInfo'
p16
(dp17
g4
(dp18
S'channels'
p19
(dp20
S'avg'
p21
I01
sS'Outside Temperature'
p22
I01
sS'Outside pressure'
p23
I01
sS'Humidity'
p24
I01
ssS'name'
p25
S'Local Temperatures'
p26
sS'location'
p27
S'C:\\Users\\Noah\\Documents\\College\\McDermott\\DatachestRoot\\2017\\4\\1'
p28
ssg8
(dp29
g19
(dp30
S'test input'
p31
I01
sS'raw input'
p32
I01
ssg25
S'Test Node'
p33
sg27
S'C:\\Users\\Noah\\Documents\\College\\McDermott\\DatachestRoot\\2017\\3\\3'
p34
ssNNsg11
(dp35
g19
(dp36
S'Random Pressure'
p37
I01
sS'Random Temperature'
p38
I01
ssg25
S'Random'
p39
sg27
S'C:\\Users\\Noah\\Documents\\College\\McDermott\\DatachestRoot\\2017\\4\\1'
p40
sssS'guiRefreshRate'
p41
F0.5
s.