(dp1
S'deviceRefreshRates'
p2
(dp3
S'Local Temperatures'
p4
(dp5
S'plot'
p6
I1
sS'readings'
p7
F1
ssS'Random'
p8
(dp9
g6
I1
sg7
F1
ssS'Virtual Device'
p10
(dp11
g6
I1
sssS'guiRefreshRage'
p12
I1
sS'DataLoggingInfo'
p13
(dp14
g4
(dp15
S'channels'
p16
(dp17
S'Outside Temperature'
p18
I01
ssS'name'
p19
S'Local Temperatures'
p20
sS'location'
p21
S'C:\\Users\\Noah\\Documents\\College\\McDermott\\DatachestRoot\\2017\\test2'
p22
ssNNsg8
(dp23
g16
(dp24
S'Random Pressure'
p25
I01
sS'Random Temperature'
p26
I01
ssg19
S'Random'
p27
sg21
g22
sssS'guiRefreshRate'
p28
F0.5
s.