(dp1
S'deviceRefreshRates'
p2
(dp3
S'Local Temperatures'
p4
(dp5
S'plot'
p6
I1
sS'readings'
p7
I1
ssS'Random'
p8
(dp9
g6
I1
sg7
I1
sssS'guiRefreshRage'
p10
I1
sS'DataLoggingInfo'
p11
(dp12
g4
(dp13
S'channels'
p14
(dp15
S'Outside Temperature'
p16
I01
sS'Outside pressure'
p17
I01
sS'Humidity'
p18
I01
ssS'name'
p19
g4
sS'location'
p20
S'C:\\Users\\Noah\\Documents\\College\\McDermott\\DatachestRoot\\2017\\2\\1'
p21
ssNNsg8
(dp22
g14
(dp23
S'Random Pressure'
p24
I01
sS'Random Temperature'
p25
I01
ssg19
g8
sg20
S'C:\\Users\\Noah\\Documents\\College\\McDermott\\DatachestRoot\\2017\\2\\1'
p26
sssS'guiRefreshRate'
p27
F0.5
s.