(dp1
S'deviceRefreshRates'
p2
(dp3
S'Random'
p4
(dp5
S'plot'
p6
F0.5
sS'readings'
p7
F0.5
sssS'guiRefreshRage'
p8
I1
sS'DataLoggingInfo'
p9
(dp10
NNsg4
(dp11
S'channels'
p12
(dp13
S'Random Pressure'
p14
I01
sS'Random Temperature'
p15
I00
ssS'name'
p16
NsS'location'
p17
S'C:\\Users\\Noah\\Documents\\College\\McDermott\\DatachestRoot\\2017\\1\\1'
p18
sssS'guiRefreshRate'
p19
F0.5
s.