(dp1
S'deviceRefreshRates'
p2
(dp3
S'Local Temperatures'
p4
(dp5
S'plot'
p6
I1
sS'readings'
p7
I1
ssS'Test Node'
p8
(dp9
g7
I1
ssS'Random'
p10
(dp11
g6
I1
sg7
I1
ssS'Grapher'
p12
(dp13
g7
I1
sssS'DataLoggingInfo'
p14
(dp15
g4
(dp16
S'channels'
p17
(dp18
S'avg'
p19
I01
sS'Outside Temperature'
p20
I01
sS'Outside pressure'
p21
I01
sS'Humidity'
p22
I01
ssS'name'
p23
S'Local Temperatures'
p24
sS'location'
p25
S'C:\\Users\\Noah\\Documents\\College\\McDermott\\DatachestRoot\\testBigButton\\standby\\04_07_17'
p26
ssg8
(dp27
g17
(dp28
S'test input'
p29
I01
sS'raw input'
p30
I01
ssg23
S'Test Node'
p31
sg25
g26
ssNNsg10
(dp32
g17
(dp33
S'Random Pressure'
p34
I01
sS'Random Temperature'
p35
I01
ssg23
S'Random'
p36
sg25
g26
sssS'guiRefreshRate'
p37
F0.5
s.