(dp1
S'deviceRefreshRates'
p2
(dp3
S'Local Temperatures'
p4
(dp5
S'plot'
p6
I1
sS'readings'
p7
I1
ssS'Random'
p8
(dp9
g6
I1
sg7
I1
sssS'guiRefreshRage'
p10
I1
sS'DataLoggingInfo'
p11
(dp12
g4
(dp13
S'channels'
p14
(dp15
S'Outside Temperature'
p16
I01
sS'Outside pressure'
p17
I01
sS'Humidity'
p18
I01
ssS'name'
p19
S'Local Temperatures'
p20
sS'location'
p21
S'C:\\Users\\Noah\\Documents\\College\\McDermott\\DatachestRoot\\2017\\2\\1'
p22
ssNNsg8
(dp23
g14
(dp24
S'Random Pressure'
p25
I01
sS'Random Temperature'
p26
I01
ssg19
S'Random'
p27
sg21
S'C:\\Users\\Noah\\Documents\\College\\McDermott\\DatachestRoot\\2017\\2\\1'
p28
sssS'guiRefreshRate'
p29
F0.5
s.