(dp1
S'Random:Random Temperature'
p2
(lp3
I00
aS''
aS''
acsip
_unpickle_type
p4
(S'PyQt4.QtCore'
p5
S'QString'
(V
ttRp6
asS'Random:Random Pressure'
p7
(lp8
I00
aS''
aS''
ag4
(g5
S'QString'
(V
ttRp9
as.