(dp1
S'Random:Random Pressure'
p2
(lp3
I01
aF0
aF1
aV
asS'Local Temperatures:Humidity'
p4
(lp5
I00
aS''
aS''
aV
asS'Test Node:raw input'
p6
(lp7
I00
aS''
aS''
aV
asS'Local Temperatures:Outside Temperature'
p8
(lp9
I00
aS''
aS''
aV
asS'Local Temperatures:Outside pressure'
p10
(lp11
I00
aS''
aS''
aV
asS'Local Temperatures:avg'
p12
(lp13
I01
aF100
aF200
aV
asS'Test Node:test input'
p14
(lp15
I00
aS''
aS''
aV
asS'Random:Random Temperature'
p16
(lp17
I01
aF0
aF1
aV
as.