(dp1
S'Local Temperatures:Humidity'
p2
(lp3
I00
aS''
aS''
acsip
_unpickle_type
p4
(S'PyQt4.QtCore'
p5
S'QString'
(V
ttRp6
asS'Local Temperatures:Outside pressure'
p7
(lp8
I00
aS''
aS''
ag4
(g5
S'QString'
(V
ttRp9
asS'Random:Random Temperature'
p10
(lp11
I00
aS''
aS''
ag4
(g5
S'QString'
(V
ttRp12
asS'Local Temperatures:Outside Temperature'
p13
(lp14
I00
aS''
aS''
ag4
(g5
S'QString'
(V
ttRp15
asS'Random:Random Pressure'
p16
(lp17
I00
aS''
aS''
ag4
(g5
S'QString'
(V
ttRp18
as.