(dp1
S'Random:Random Temperature'
p2
(lp3
I00
aS''
aS''
acsip
_unpickle_type
p4
(S'PyQt4.QtCore'
p5
S'QString'
(V
ttRp6
asS'Local Temperatures:Outside Temperature'
p7
(lp8
I00
aS''
aS''
ag4
(g5
S'QString'
(V
ttRp9
asS'Random:Random Pressure'
p10
(lp11
I00
aF0
aF1
ag4
(g5
S'QString'
(VNOAHEMAIL
p12
ttRp13
as.