(dp1
S'Random:Random Temperature'
p2
(lp3
I00
aS''
aS''
acsip
_unpickle_type
p4
(S'PyQt4.QtCore'
p5
S'QString'
(V
ttRp6
asS'Local Temperatures:Outside Temperature'
p7
(lp8
I00
aS''
aS''
ag4
(g5
S'QString'
(V
ttRp9
asS'Random:Random Pressure'
p10
(lp11
I01
aF1
aF2
ag4
(g5
S'QString'
(V
ttRp12
as.