(dp1
S'LakeShore:Temperature'
p2
(lp3
I00
aS''
aS''
acsip
_unpickle_type
p4
(S'PyQt4.QtCore'
p5
S'QString'
(V
ttRp6
asS'LakeShore:Average Temperature '
p7
(lp8
I00
aS''
aS''
ag4
(g5
S'QString'
(V
ttRp9
as.